; Function Attrs: mustprogress uwtable
define void @_ZN2cv6xphoto12dctDenoisingERKNS_3MatERS1_di(ptr noundef nonnull align 8 dereferenceable(96) %0, ptr noundef nonnull align 8 dereferenceable(96) %1, double noundef %2, i32 noundef %3) local_unnamed_addr #4 personality ptr @__gxx_personality_v0 {
  %5 = alloca %"class.std::__cxx11::basic_string", align 8
  %6 = alloca %"class.std::allocator.0", align 1
  %7 = alloca %"class.cv::Mat", align 8
  %8 = alloca %"class.cv::_OutputArray", align 8
  %9 = alloca %"class.std::__cxx11::basic_string", align 8
  %10 = alloca %"class.cv::_OutputArray", align 8
  %11 = load i32, ptr %0, align 8
  %12 = lshr i32 %11, 3
  %13 = and i32 %12, 511
  switch i32 %13, label %14 [
    i32 2, label %22
    i32 0, label %22
  ]

14:                                               ; preds = %4
  call void @_ZNSaIcEC1Ev(ptr noundef nonnull align 1 dereferenceable(1) %6) #14
  invoke void @_ZNSt7__cxx1112basic_stringIcSt11char_traitsIcESaIcEEC1EPKcRKS3_(ptr noundef nonnull align 8 dereferenceable(32) %5, ptr noundef nonnull @.str.3, ptr noundef nonnull align 1 dereferenceable(1) %6)
          to label %15 unwind label %17

15:                                               ; preds = %14
  invoke void @_ZN2cv5errorEiRKNSt7__cxx1112basic_stringIcSt11char_traitsIcESaIcEEEPKcS9_i(i32 noundef -215, ptr noundef nonnull align 8 dereferenceable(32) %5, ptr noundef nonnull @__func__._ZN2cv6xphoto12dctDenoisingERKNS_3MatERS1_di, ptr noundef nonnull @.str.1, i32 noundef 167) #15
          to label %16 unwind label %19

16:                                               ; preds = %15
  unreachable

17:                                               ; preds = %14
  %18 = landingpad { ptr, i32 }
          cleanup
  br label %21

19:                                               ; preds = %15
  %20 = landingpad { ptr, i32 }
          cleanup
  call void @_ZNSt7__cxx1112basic_stringIcSt11char_traitsIcESaIcEED1Ev(ptr noundef nonnull align 8 dereferenceable(32) %5) #14
  br label %21

21:                                               ; preds = %19, %17
  %.pn = phi { ptr, i32 } [ %20, %19 ], [ %18, %17 ]
  call void @_ZNSaIcED1Ev(ptr noundef nonnull align 1 dereferenceable(1) %6) #14
  br label %55

22:                                               ; preds = %4, %4
  %23 = shl nuw nsw i32 %13, 3
  %24 = or disjoint i32 %23, 5
  %25 = getelementptr inbounds i8, ptr %0, i64 64
  %26 = load ptr, ptr %25, align 8
  %27 = getelementptr inbounds i8, ptr %26, i64 4
  %28 = load i32, ptr %27, align 4
  %29 = load i32, ptr %26, align 4
  %.sroa.2.0.insert.ext.i = zext i32 %29 to i64
  %.sroa.2.0.insert.shift.i = shl nuw i64 %.sroa.2.0.insert.ext.i, 32
  %.sroa.0.0.insert.ext.i = zext i32 %28 to i64
  %.sroa.0.0.insert.insert.i = or disjoint i64 %.sroa.2.0.insert.shift.i, %.sroa.0.0.insert.ext.i
  call void @_ZN2cv3MatC1ENS_5Size_IiEEi(ptr noundef nonnull align 8 dereferenceable(96) %7, i64 %.sroa.0.0.insert.insert.i, i32 noundef %24)
  %30 = getelementptr inbounds i8, ptr %8, i64 8
  %31 = getelementptr inbounds i8, ptr %8, i64 16
  store i64 0, ptr %31, align 8
  store i32 33619968, ptr %8, align 8
  store ptr %7, ptr %30, align 8
  invoke void @_ZNK2cv3Mat9convertToERKNS_12_OutputArrayEidd(ptr noundef nonnull align 8 dereferenceable(96) %0, ptr noundef nonnull align 8 dereferenceable(24) %8, i32 noundef %24, double noundef 1.000000e+00, double noundef 0.000000e+00)
          to label %32 unwind label %38

32:                                               ; preds = %22
  %33 = load i32, ptr %7, align 8
  %34 = and i32 %33, 4095
  switch i32 %34, label %41 [
    i32 21, label %35
    i32 5, label %40
  ]

35:                                               ; preds = %32
  invoke void @_ZN2cv6xphoto15rgbDctDenoisingERKNS_3MatERS1_di(ptr noundef nonnull align 8 dereferenceable(96) %7, ptr noundef nonnull align 8 dereferenceable(96) %7, double noundef %2, i32 noundef %3)
          to label %46 unwind label %36

36:                                               ; preds = %41, %40, %35
  %37 = landingpad { ptr, i32 }
          cleanup
  br label %54

38:                                               ; preds = %22
  %39 = landingpad { ptr, i32 }
          cleanup
  br label %54

40:                                               ; preds = %32
  invoke void @_ZN2cv6xphoto16grayDctDenoisingERKNS_3MatERS1_di(ptr noundef nonnull align 8 dereferenceable(96) %7, ptr noundef nonnull align 8 dereferenceable(96) %7, double noundef %2, i32 noundef %3)
          to label %46 unwind label %36

41:                                               ; preds = %32
  invoke void (ptr, ptr, ...) @_ZN2cv6formatB5cxx11EPKcz(ptr dead_on_unwind nonnull writable sret(%"class.std::__cxx11::basic_string") align 8 %9, ptr noundef nonnull @.str.4, i32 noundef %34)
          to label %42 unwind label %36

42:                                               ; preds = %41
  invoke void @_ZN2cv5errorEiRKNSt7__cxx1112basic_stringIcSt11char_traitsIcESaIcEEEPKcS9_i(i32 noundef -213, ptr noundef nonnull align 8 dereferenceable(32) %9, ptr noundef nonnull @__func__._ZN2cv6xphoto12dctDenoisingERKNS_3MatERS1_di, ptr noundef nonnull @.str.1, i32 noundef 179) #15
          to label %43 unwind label %44

43:                                               ; preds = %42
  unreachable

44:                                               ; preds = %42
  %45 = landingpad { ptr, i32 }
          cleanup
  call void @_ZNSt7__cxx1112basic_stringIcSt11char_traitsIcESaIcEED1Ev(ptr noundef nonnull align 8 dereferenceable(32) %9) #14
  br label %54

46:                                               ; preds = %35, %40
  %47 = getelementptr inbounds i8, ptr %10, i64 8
  %48 = getelementptr inbounds i8, ptr %10, i64 16
  store i64 0, ptr %48, align 8
  store i32 33619968, ptr %10, align 8
  store ptr %1, ptr %47, align 8
  %49 = load i32, ptr %0, align 8
  %50 = and i32 %49, 4095
  invoke void @_ZNK2cv3Mat9convertToERKNS_12_OutputArrayEidd(ptr noundef nonnull align 8 dereferenceable(96) %7, ptr noundef nonnull align 8 dereferenceable(24) %10, i32 noundef %50, double noundef 1.000000e+00, double noundef 0.000000e+00)
          to label %51 unwind label %52

51:                                               ; preds = %46
  call void @_ZN2cv3MatD1Ev(ptr noundef nonnull align 8 dereferenceable(96) %7) #14
  ret void

52:                                               ; preds = %46
  %53 = landingpad { ptr, i32 }
          cleanup
  br label %54

54:                                               ; preds = %52, %44, %38, %36
  %.pn18 = phi { ptr, i32 } [ %53, %52 ], [ %37, %36 ], [ %45, %44 ], [ %39, %38 ]
  call void @_ZN2cv3MatD1Ev(ptr noundef nonnull align 8 dereferenceable(96) %7) #14
  br label %55

55:                                               ; preds = %54, %21
  %.pn18.pn = phi { ptr, i32 } [ %.pn18, %54 ], [ %.pn, %21 ]
  resume { ptr, i32 } %.pn18.pn
}